; Function Attrs: mustprogress nounwind uwtable
define dso_local void @_ZNK4llvm3pdb13NativeSession27findLineNumbersBySectOffsetEjjj(ptr dead_on_unwind noalias writable sret(%"class.std::unique_ptr.211") align 8 %0, ptr noundef nonnull align 8 dereferenceable(584) %1, i32 noundef %2, i32 noundef %3, i32 noundef %4) unnamed_addr #0 align 2 {
  %6 = getelementptr inbounds nuw i8, ptr %1, i64 312
  %7 = load i64, ptr %6, align 8
  %8 = tail call noundef i32 @_ZNK4llvm3pdb13NativeSession20getRVAFromSectOffsetEjj(ptr noundef nonnull readonly align 8 dereferenceable(584) %1, i32 noundef %2, i32 noundef %3)
  %9 = zext i32 %8 to i64
  %10 = add i64 %7, %9
  %11 = getelementptr inbounds nuw i8, ptr %1, i64 24
  tail call void @_ZNK4llvm3pdb11SymbolCache19findLineNumbersByVAEmj(ptr dead_on_unwind writable sret(%"class.std::unique_ptr.211") align 8 %0, ptr noundef nonnull align 8 dereferenceable(280) %11, i64 noundef %10, i32 noundef %4) #16
  ret void
}